; Function Attrs: mustprogress uwtable
define void @_ZNK30MLRenderingBBoxParametersFrame37getCurrentRenderingDataAccordingToGUIER15MLRenderingData(ptr nocapture noundef nonnull readonly align 8 dereferenceable(96) %0, ptr noundef nonnull align 8 dereferenceable(40) %1) unnamed_addr #3 align 2 {
  %3 = getelementptr inbounds i8, ptr %0, i64 64
  %4 = load ptr, ptr %3, align 8
  %5 = getelementptr inbounds i8, ptr %4, i64 48
  %6 = load ptr, ptr %5, align 8
  %7 = getelementptr inbounds i8, ptr %6, i64 12
  %8 = load i32, ptr %7, align 4
  %9 = getelementptr inbounds i8, ptr %6, i64 8
  %10 = load i32, ptr %9, align 8
  %11 = icmp sgt i32 %8, %10
  br i1 %11, label %.lr.ph.i, label %_ZNK18MLRenderingToolbar37getCurrentRenderingDataAccordingToGUIER15MLRenderingData.exit

.lr.ph.i:                                         ; preds = %2, %23
  %12 = phi ptr [ %24, %23 ], [ %6, %2 ]
  %indvars.iv.i = phi i64 [ %indvars.iv.next.i, %23 ], [ 0, %2 ]
  %13 = phi i32 [ %28, %23 ], [ %10, %2 ]
  %14 = getelementptr inbounds i8, ptr %12, i64 16
  %15 = sext i32 %13 to i64
  %16 = getelementptr inbounds ptr, ptr %14, i64 %15
  %17 = getelementptr inbounds ptr, ptr %16, i64 %indvars.iv.i
  %18 = load ptr, ptr %17, align 8
  %.not.i = icmp eq ptr %18, null
  br i1 %.not.i, label %23, label %19

19:                                               ; preds = %.lr.ph.i
  %20 = load ptr, ptr %18, align 8
  %21 = getelementptr inbounds i8, ptr %20, i64 104
  %22 = load ptr, ptr %21, align 8
  tail call void %22(ptr noundef nonnull align 8 dereferenceable(16) %18, ptr noundef nonnull align 8 dereferenceable(40) %1)
  %.pre.i = load ptr, ptr %5, align 8
  br label %23

23:                                               ; preds = %19, %.lr.ph.i
  %24 = phi ptr [ %12, %.lr.ph.i ], [ %.pre.i, %19 ]
  %indvars.iv.next.i = add nuw nsw i64 %indvars.iv.i, 1
  %25 = getelementptr inbounds i8, ptr %24, i64 12
  %26 = load i32, ptr %25, align 4
  %27 = getelementptr inbounds i8, ptr %24, i64 8
  %28 = load i32, ptr %27, align 8
  %29 = sub nsw i32 %26, %28
  %30 = sext i32 %29 to i64
  %31 = icmp slt i64 %indvars.iv.next.i, %30
  br i1 %31, label %.lr.ph.i, label %_ZNK18MLRenderingToolbar37getCurrentRenderingDataAccordingToGUIER15MLRenderingData.exit, !llvm.loop !45

_ZNK18MLRenderingToolbar37getCurrentRenderingDataAccordingToGUIER15MLRenderingData.exit: ; preds = %23, %2
  %32 = getelementptr inbounds i8, ptr %0, i64 88
  %33 = load ptr, ptr %32, align 8
  %34 = getelementptr inbounds i8, ptr %33, i64 56
  %35 = load ptr, ptr %34, align 8
  %.not.i3 = icmp eq ptr %35, null
  br i1 %.not.i3, label %_ZNK23MLRenderingOnOffToolbar30getRenderingDataAccordingToGUIER15MLRenderingData.exit, label %36

36:                                               ; preds = %_ZNK18MLRenderingToolbar37getCurrentRenderingDataAccordingToGUIER15MLRenderingData.exit
  %37 = load ptr, ptr %35, align 8
  %38 = getelementptr inbounds i8, ptr %37, i64 104
  %39 = load ptr, ptr %38, align 8
  tail call void %39(ptr noundef nonnull align 8 dereferenceable(16) %35, ptr noundef nonnull align 8 dereferenceable(40) %1)
  br label %_ZNK23MLRenderingOnOffToolbar30getRenderingDataAccordingToGUIER15MLRenderingData.exit

_ZNK23MLRenderingOnOffToolbar30getRenderingDataAccordingToGUIER15MLRenderingData.exit: ; preds = %_ZNK18MLRenderingToolbar37getCurrentRenderingDataAccordingToGUIER15MLRenderingData.exit, %36
  ret void
}